; Function Attrs: mustprogress nofree norecurse nosync nounwind willreturn memory(read, inaccessiblemem: none) uwtable
define hidden noundef zeroext i1 @_ZNK3smt13theory_recfun13is_beta_redexEPNS_5enodeES2_(ptr nocapture noundef nonnull readonly align 8 dereferenceable(212) %this, ptr nocapture noundef readonly %p, ptr nocapture readnone %n) unnamed_addr #8 align 2 {
entry:
  %0 = load ptr, ptr %p, align 8
  %m_util.i.i.i = getelementptr inbounds i8, ptr %this, i64 64
  %1 = load ptr, ptr %m_util.i.i.i, align 8
  %m_fid.i.i.i = getelementptr inbounds i8, ptr %1, i64 8
  %2 = load i32, ptr %m_fid.i.i.i, align 8
  %m_kind.i.i.i.i.i = getelementptr inbounds i8, ptr %0, i64 4
  %bf.load.i.i.i.i.i = load i32, ptr %m_kind.i.i.i.i.i, align 4
  %bf.clear.i.i.i.i.i = and i32 %bf.load.i.i.i.i.i, 65535
  %cmp.i.i.i.i = icmp eq i32 %bf.clear.i.i.i.i.i, 0
  br i1 %cmp.i.i.i.i, label %land.rhs.i.i.i.i, label %lor.end

land.rhs.i.i.i.i:                                 ; preds = %entry
  %m_decl.i.i.i.i.i = getelementptr inbounds i8, ptr %0, i64 16
  %3 = load ptr, ptr %m_decl.i.i.i.i.i, align 8
  %m_info.i.i.i.i.i.i = getelementptr inbounds i8, ptr %3, i64 24
  %4 = load ptr, ptr %m_info.i.i.i.i.i.i, align 8
  %tobool.not.i.i.i.i.i.i = icmp eq ptr %4, null
  br i1 %tobool.not.i.i.i.i.i.i, label %lor.end, label %_ZNK3smt13theory_recfun10is_definedEPNS_5enodeE.exit

_ZNK3smt13theory_recfun10is_definedEPNS_5enodeE.exit: ; preds = %land.rhs.i.i.i.i
  %5 = load i32, ptr %4, align 8
  %cmp.i.i.i.i.i.i.i = icmp eq i32 %5, %2
  %m_kind.i.i.i.i.i.i.i = getelementptr inbounds i8, ptr %4, i64 4
  %6 = load i32, ptr %m_kind.i.i.i.i.i.i.i, align 4
  %cmp2.i.i.i.i.i.i.i = icmp eq i32 %6, 0
  %7 = select i1 %cmp.i.i.i.i.i.i.i, i1 %cmp2.i.i.i.i.i.i.i, i1 false
  br i1 %7, label %lor.end, label %land.rhs.i.i.i.i.i.i12

land.rhs.i.i.i.i.i.i12:                           ; preds = %_ZNK3smt13theory_recfun10is_definedEPNS_5enodeE.exit
  %8 = load i32, ptr %4, align 8
  %cmp.i.i.i.i.i.i.i13 = icmp eq i32 %8, %2
  %m_kind.i.i.i.i.i.i.i14 = getelementptr inbounds i8, ptr %4, i64 4
  %9 = load i32, ptr %m_kind.i.i.i.i.i.i.i14, align 4
  %cmp2.i.i.i.i.i.i.i15 = icmp eq i32 %9, 1
  %10 = select i1 %cmp.i.i.i.i.i.i.i13, i1 %cmp2.i.i.i.i.i.i.i15, i1 false
  br label %lor.end

lor.end:                                          ; preds = %land.rhs.i.i.i.i, %land.rhs.i.i.i.i.i.i12, %entry, %_ZNK3smt13theory_recfun10is_definedEPNS_5enodeE.exit
  %11 = phi i1 [ true, %_ZNK3smt13theory_recfun10is_definedEPNS_5enodeE.exit ], [ %10, %land.rhs.i.i.i.i.i.i12 ], [ false, %entry ], [ false, %land.rhs.i.i.i.i ]
  ret i1 %11
}